target datalayout = "e-m:e-p270:32:32-p271:32:32-p272:64:64-i64:64-i128:128-f80:128-n8:16:32:64-S128"
target triple = "x86_64-pc-linux-gnu"

%struct._mq_parm_t = type { i32, i32, i32, i32, i32, i32, i32, i32, i32, i32, i32, i32, i32, i8, i8, i8, %struct._mq_ccsid_t, %struct._mq_ccsid_t, %struct._mq_ccsid_t, %struct._mq_ccsid_t, %struct._mq_ccsid_t, %struct._mq_ccsid_t, %struct._mq_ccsid_t, [8 x i8], i32, i32, i32 }
%struct._mq_ccsid_t = type { i32, i32 }

@.str.1893 = private unnamed_addr constant [25 x i8] c"Bind/Read Ahead As Q Def\00", align 1

; Function Attrs: null_pointer_is_valid sspstrong uwtable
define internal i32 @dissect_mq_MQOO(ptr noundef %0, ptr noundef %1, i32 noundef %2, i32 noundef %3, i32 noundef %4, ptr noundef %5) #0 {
  %7 = alloca ptr, align 8
  %8 = alloca ptr, align 8
  %9 = alloca i32, align 4
  %10 = alloca i32, align 4
  %11 = alloca i32, align 4
  %12 = alloca ptr, align 8
  %13 = alloca i32, align 4
  %14 = alloca ptr, align 8
  %15 = alloca ptr, align 8
  store ptr %0, ptr %7, align 8
  store ptr %1, ptr %8, align 8
  store i32 %2, ptr %9, align 4
  store i32 %3, ptr %10, align 4
  store i32 %4, ptr %11, align 4
  store ptr %5, ptr %12, align 8
  call void @llvm.lifetime.start.p0(i64 4, ptr %13) #9
  %16 = load ptr, ptr %7, align 8
  %17 = load i32, ptr %9, align 4
  %18 = load ptr, ptr %12, align 8
  %19 = getelementptr inbounds nuw %struct._mq_parm_t, ptr %18, i32 0, i32 3
  %20 = load i32, ptr %19, align 4
  %21 = call i32 @tvb_get_uint32(ptr noundef %16, i32 noundef %17, i32 noundef %20)
  store i32 %21, ptr %13, align 4
  %22 = load i32, ptr %13, align 4
  %23 = icmp eq i32 %22, 0
  br i1 %23, label %24, label %41

24:                                               ; preds = %6
  call void @llvm.lifetime.start.p0(i64 8, ptr %14) #9
  call void @llvm.lifetime.start.p0(i64 8, ptr %15) #9
  %25 = load ptr, ptr %8, align 8
  %26 = load i32, ptr %11, align 4
  %27 = load ptr, ptr %7, align 8
  %28 = load i32, ptr %9, align 4
  %29 = load ptr, ptr %12, align 8
  %30 = getelementptr inbounds nuw %struct._mq_parm_t, ptr %29, i32 0, i32 3
  %31 = load i32, ptr %30, align 4
  %32 = call ptr @proto_tree_add_item(ptr noundef %25, i32 noundef %26, ptr noundef %27, i32 noundef %28, i32 noundef 4, i32 noundef %31)
  store ptr %32, ptr %14, align 8
  %33 = load ptr, ptr %14, align 8
  %34 = load i32, ptr %10, align 4
  %35 = call ptr @proto_item_add_subtree(ptr noundef %33, i32 noundef %34)
  store ptr %35, ptr %15, align 8
  %36 = load ptr, ptr %15, align 8
  %37 = load ptr, ptr %7, align 8
  %38 = load i32, ptr %9, align 4
  %39 = load i32, ptr %10, align 4
  %40 = call ptr (ptr, ptr, i32, i32, i32, ptr, ptr, ...) @proto_tree_add_subtree_format(ptr noundef %36, ptr noundef %37, i32 noundef %38, i32 noundef 4, i32 noundef %39, ptr noundef null, ptr noundef @.str.1893)
  call void @llvm.lifetime.end.p0(i64 8, ptr %15) #9
  call void @llvm.lifetime.end.p0(i64 8, ptr %14) #9
  br label %51

41:                                               ; preds = %6
  %42 = load ptr, ptr %8, align 8
  %43 = load ptr, ptr %7, align 8
  %44 = load i32, ptr %9, align 4
  %45 = load i32, ptr %11, align 4
  %46 = load i32, ptr %10, align 4
  %47 = load ptr, ptr %12, align 8
  %48 = getelementptr inbounds nuw %struct._mq_parm_t, ptr %47, i32 0, i32 3
  %49 = load i32, ptr %48, align 4
  %50 = call ptr @proto_tree_add_bitmask(ptr noundef %42, ptr noundef %43, i32 noundef %44, i32 noundef %45, i32 noundef %46, ptr noundef @pf_flds_opnopt, i32 noundef %49)
  br label %51

51:                                               ; preds = %41, %24
  call void @llvm.lifetime.end.p0(i64 4, ptr %13) #9
  ret i32 4
}