; Function Attrs: null_pointer_is_valid sspstrong uwtable
define internal fastcc void @dissect_mq_MQOO(ptr noundef %0, ptr noundef %1, i32 noundef %2, i32 noundef %3, i32 noundef %4, ptr noundef readonly captures(none) %5) unnamed_addr #0 {
  %7 = getelementptr inbounds nuw i8, ptr %5, i64 12
  %8 = load i32, ptr %7, align 4
  %9 = tail call i32 @tvb_get_uint32(ptr noundef %0, i32 noundef %2, i32 noundef %8)
  %10 = icmp eq i32 %9, 0
  %11 = load i32, ptr %7, align 4
  br i1 %10, label %12, label %16

12:                                               ; preds = %6
  %13 = tail call ptr @proto_tree_add_item(ptr noundef %1, i32 noundef %4, ptr noundef %0, i32 noundef %2, i32 noundef 4, i32 noundef %11)
  %14 = tail call ptr @proto_item_add_subtree(ptr noundef %13, i32 noundef %3)
  %15 = tail call ptr (ptr, ptr, i32, i32, i32, ptr, ptr, ...) @proto_tree_add_subtree_format(ptr noundef %14, ptr noundef %0, i32 noundef %2, i32 noundef 4, i32 noundef %3, ptr noundef null, ptr noundef nonnull @.str.1893)
  br label %18

16:                                               ; preds = %6
  %17 = tail call ptr @proto_tree_add_bitmask(ptr noundef %1, ptr noundef %0, i32 noundef %2, i32 noundef %4, i32 noundef %3, ptr noundef nonnull @pf_flds_opnopt, i32 noundef %11)
  br label %18

18:                                               ; preds = %16, %12
  ret void
}